; Function Attrs: mustprogress uwtable
define dso_local noundef zeroext i1 @_ZN22cmCTestCoverageHandler20StartCoverageLogFileER21cmGeneratedFileStreami(ptr noundef nonnull align 8 dereferenceable(576) %0, ptr noundef nonnull align 8 dereferenceable(348) %1, i32 noundef %2) local_unnamed_addr #3 align 2 personality ptr @__gxx_personality_v0 {
  %4 = alloca [1024 x i8], align 16
  %5 = alloca %"class.std::__cxx11::basic_ostringstream", align 8
  %6 = alloca %"class.std::__cxx11::basic_string", align 8
  %7 = alloca %"class.std::__cxx11::basic_ostringstream", align 8
  %8 = alloca %"class.std::__cxx11::basic_string", align 8
  %9 = call i32 (ptr, i64, ptr, ...) @snprintf(ptr noundef nonnull dereferenceable(1) %4, i64 noundef 1024, ptr noundef nonnull @.str.5, i32 noundef %2) #19
  call void @_ZNSt7__cxx1119basic_ostringstreamIcSt11char_traitsIcESaIcEEC1Ev(ptr noundef nonnull align 8 dereferenceable(112) %5)
  %10 = invoke noundef nonnull align 8 dereferenceable(8) ptr @_ZStlsISt11char_traitsIcEERSt13basic_ostreamIcT_ES5_PKc(ptr noundef nonnull align 8 dereferenceable(8) %5, ptr noundef nonnull @.str.6)
          to label %11 unwind label %37

11:                                               ; preds = %3
  %12 = invoke noundef nonnull align 8 dereferenceable(8) ptr @_ZStlsISt11char_traitsIcEERSt13basic_ostreamIcT_ES5_PKc(ptr noundef nonnull align 8 dereferenceable(8) %10, ptr noundef nonnull %4)
          to label %13 unwind label %37

13:                                               ; preds = %11
  %14 = invoke noundef nonnull align 8 dereferenceable(8) ptr @_ZNSolsEPFRSoS_E(ptr noundef nonnull align 8 dereferenceable(8) %12, ptr noundef nonnull @_ZSt4endlIcSt11char_traitsIcEERSt13basic_ostreamIT_T0_ES6_)
          to label %15 unwind label %37

15:                                               ; preds = %13
  %16 = getelementptr inbounds i8, ptr %0, i64 32
  %17 = load ptr, ptr %16, align 8
  invoke void @_ZNKSt7__cxx1119basic_ostringstreamIcSt11char_traitsIcESaIcEE3strEv(ptr dead_on_unwind nonnull writable sret(%"class.std::__cxx11::basic_string") align 8 %6, ptr noundef nonnull align 8 dereferenceable(112) %5)
          to label %18 unwind label %37

18:                                               ; preds = %15
  %19 = call noundef ptr @_ZNKSt7__cxx1112basic_stringIcSt11char_traitsIcESaIcEE5c_strEv(ptr noundef nonnull align 8 dereferenceable(32) %6) #19
  %20 = getelementptr inbounds i8, ptr %0, i64 9
  %21 = load i8, ptr %20, align 1
  %22 = and i8 %21, 1
  %23 = icmp ne i8 %22, 0
  invoke void @_ZN7cmCTest3LogEiPKciS1_b(ptr noundef nonnull align 8 dereferenceable(8) %17, i32 noundef 5, ptr noundef nonnull @.str.7, i32 noundef 79, ptr noundef %19, i1 noundef zeroext %23)
          to label %24 unwind label %39

24:                                               ; preds = %18
  call void @_ZNSt7__cxx1112basic_stringIcSt11char_traitsIcESaIcEED1Ev(ptr noundef nonnull align 8 dereferenceable(32) %6) #19
  call void @_ZNSt7__cxx1119basic_ostringstreamIcSt11char_traitsIcESaIcEED1Ev(ptr noundef nonnull align 8 dereferenceable(112) %5) #19
  %25 = call noundef zeroext i1 @_ZN21cmCTestGenericHandler17StartResultingXMLEN7cmCTest4PartEPKcR21cmGeneratedFileStream(ptr noundef nonnull align 8 dereferenceable(284) %0, i32 noundef 5, ptr noundef nonnull %4, ptr noundef nonnull align 8 dereferenceable(348) %1)
  br i1 %25, label %45, label %26

26:                                               ; preds = %24
  call void @_ZNSt7__cxx1119basic_ostringstreamIcSt11char_traitsIcESaIcEEC1Ev(ptr noundef nonnull align 8 dereferenceable(112) %7)
  %27 = invoke noundef nonnull align 8 dereferenceable(8) ptr @_ZStlsISt11char_traitsIcEERSt13basic_ostreamIcT_ES5_PKc(ptr noundef nonnull align 8 dereferenceable(8) %7, ptr noundef nonnull @.str.8)
          to label %28 unwind label %41

28:                                               ; preds = %26
  %29 = invoke noundef nonnull align 8 dereferenceable(8) ptr @_ZStlsISt11char_traitsIcEERSt13basic_ostreamIcT_ES5_PKc(ptr noundef nonnull align 8 dereferenceable(8) %27, ptr noundef nonnull %4)
          to label %30 unwind label %41

30:                                               ; preds = %28
  %31 = invoke noundef nonnull align 8 dereferenceable(8) ptr @_ZNSolsEPFRSoS_E(ptr noundef nonnull align 8 dereferenceable(8) %29, ptr noundef nonnull @_ZSt4endlIcSt11char_traitsIcEERSt13basic_ostreamIT_T0_ES6_)
          to label %32 unwind label %41

32:                                               ; preds = %30
  %33 = load ptr, ptr %16, align 8
  invoke void @_ZNKSt7__cxx1119basic_ostringstreamIcSt11char_traitsIcESaIcEE3strEv(ptr dead_on_unwind nonnull writable sret(%"class.std::__cxx11::basic_string") align 8 %8, ptr noundef nonnull align 8 dereferenceable(112) %7)
          to label %34 unwind label %41

34:                                               ; preds = %32
  %35 = call noundef ptr @_ZNKSt7__cxx1112basic_stringIcSt11char_traitsIcESaIcEE5c_strEv(ptr noundef nonnull align 8 dereferenceable(32) %8) #19
  invoke void @_ZN7cmCTest3LogEiPKciS1_b(ptr noundef nonnull align 8 dereferenceable(8) %33, i32 noundef 7, ptr noundef nonnull @.str.7, i32 noundef 83, ptr noundef %35, i1 noundef zeroext false)
          to label %36 unwind label %43

36:                                               ; preds = %34
  call void @_ZNSt7__cxx1112basic_stringIcSt11char_traitsIcESaIcEED1Ev(ptr noundef nonnull align 8 dereferenceable(32) %8) #19
  call void @_ZNSt7__cxx1119basic_ostringstreamIcSt11char_traitsIcESaIcEED1Ev(ptr noundef nonnull align 8 dereferenceable(112) %7) #19
  br label %45

37:                                               ; preds = %15, %13, %11, %3
  %38 = landingpad { ptr, i32 }
          cleanup
  br label %46

39:                                               ; preds = %18
  %40 = landingpad { ptr, i32 }
          cleanup
  call void @_ZNSt7__cxx1112basic_stringIcSt11char_traitsIcESaIcEED1Ev(ptr noundef nonnull align 8 dereferenceable(32) %6) #19
  br label %46

41:                                               ; preds = %32, %30, %28, %26
  %42 = landingpad { ptr, i32 }
          cleanup
  br label %46

43:                                               ; preds = %34
  %44 = landingpad { ptr, i32 }
          cleanup
  call void @_ZNSt7__cxx1112basic_stringIcSt11char_traitsIcESaIcEED1Ev(ptr noundef nonnull align 8 dereferenceable(32) %8) #19
  br label %46

45:                                               ; preds = %24, %36
  ret i1 %25

46:                                               ; preds = %41, %43, %37, %39
  %.sink = phi ptr [ %5, %39 ], [ %5, %37 ], [ %7, %43 ], [ %7, %41 ]
  %.pn10.pn = phi { ptr, i32 } [ %40, %39 ], [ %38, %37 ], [ %44, %43 ], [ %42, %41 ]
  call void @_ZNSt7__cxx1119basic_ostringstreamIcSt11char_traitsIcESaIcEED1Ev(ptr noundef nonnull align 8 dereferenceable(112) %.sink) #19
  resume { ptr, i32 } %.pn10.pn
}